target datalayout = "e-m:e-p270:32:32-p271:32:32-p272:64:64-i64:64-i128:128-f80:128-n8:16:32:64-S128"
target triple = "x86_64-pc-linux-gnu"

%struct.Node = type { i32 }
%struct.Expr = type { i32 }
%struct.List = type { i32, i32, i32, ptr, [0 x %union.ListCell] }
%union.ListCell = type { ptr }
%struct.RestrictInfo = type { i32, ptr, i8, i8, i8, i8, i8, i8, i32, i32, i32, ptr, ptr, ptr, ptr, ptr, ptr, ptr, i32, ptr, %struct.QualCost, double, double, ptr, ptr, ptr, ptr, ptr, ptr, i8, i32, double, double, double, double, i32, i32 }
%struct.QualCost = type { double, double }
%struct.OpExpr = type { %struct.Expr, i32, i32, i32, i8, i32, i32, ptr, i32 }
%struct.PlannerInfo = type { i32, ptr, ptr, i32, ptr, ptr, ptr, ptr, i32, ptr, ptr, ptr, ptr, ptr, ptr, ptr, ptr, i32, ptr, ptr, ptr, ptr, ptr, i8, ptr, ptr, ptr, ptr, ptr, i32, ptr, ptr, ptr, ptr, ptr, ptr, ptr, i32, ptr, ptr, ptr, i32, ptr, ptr, ptr, ptr, ptr, ptr, [8 x ptr], [8 x ptr], ptr, ptr, ptr, ptr, ptr, ptr, ptr, double, double, double, i32, i8, i8, i8, i8, i8, i8, i8, i32, ptr, ptr, i32, i8, i8, i32, ptr, ptr, ptr, ptr, ptr, ptr, i8, ptr }

; Function Attrs: inlinehint nounwind uwtable
define internal ptr @list_nth_cell(ptr noundef %0, i32 noundef %1) #1 {
  %3 = alloca ptr, align 8
  %4 = alloca i32, align 4
  store ptr %0, ptr %3, align 8
  store i32 %1, ptr %4, align 4
  %5 = load ptr, ptr %3, align 8
  %6 = getelementptr inbounds nuw %struct.List, ptr %5, i32 0, i32 3
  %7 = load ptr, ptr %6, align 8
  %8 = load i32, ptr %4, align 4
  %9 = sext i32 %8 to i64
  %10 = getelementptr inbounds %union.ListCell, ptr %7, i64 %9
  ret ptr %10
}

; Function Attrs: inlinehint nounwind uwtable
define internal ptr @get_rightop(ptr noundef %0) #1 {
  %2 = alloca ptr, align 8
  %3 = alloca ptr, align 8
  %4 = alloca ptr, align 8
  %5 = alloca i32, align 4
  store ptr %0, ptr %3, align 8
  call void @llvm.lifetime.start.p0(i64 8, ptr %4) #6
  %6 = load ptr, ptr %3, align 8
  store ptr %6, ptr %4, align 8
  %7 = load ptr, ptr %4, align 8
  %8 = getelementptr inbounds nuw %struct.OpExpr, ptr %7, i32 0, i32 7
  %9 = load ptr, ptr %8, align 8
  %10 = call i32 @list_length(ptr noundef %9)
  %11 = icmp sge i32 %10, 2
  br i1 %11, label %12, label %18

12:                                               ; preds = %1
  %13 = load ptr, ptr %4, align 8
  %14 = getelementptr inbounds nuw %struct.OpExpr, ptr %13, i32 0, i32 7
  %15 = load ptr, ptr %14, align 8
  %16 = call ptr @list_nth_cell(ptr noundef %15, i32 noundef 1)
  %17 = load ptr, ptr %16, align 8
  store ptr %17, ptr %2, align 8
  store i32 1, ptr %5, align 4
  br label %19

18:                                               ; preds = %1
  store ptr null, ptr %2, align 8
  store i32 1, ptr %5, align 4
  br label %19

19:                                               ; preds = %18, %12
  call void @llvm.lifetime.end.p0(i64 8, ptr %4) #6
  %20 = load ptr, ptr %2, align 8
  ret ptr %20
}

; Function Attrs: inlinehint nounwind uwtable
define internal ptr @get_leftop(ptr noundef %0) #1 {
  %2 = alloca ptr, align 8
  %3 = alloca ptr, align 8
  %4 = alloca ptr, align 8
  %5 = alloca i32, align 4
  store ptr %0, ptr %3, align 8
  call void @llvm.lifetime.start.p0(i64 8, ptr %4) #6
  %6 = load ptr, ptr %3, align 8
  store ptr %6, ptr %4, align 8
  %7 = load ptr, ptr %4, align 8
  %8 = getelementptr inbounds nuw %struct.OpExpr, ptr %7, i32 0, i32 7
  %9 = load ptr, ptr %8, align 8
  %10 = icmp ne ptr %9, null
  br i1 %10, label %11, label %17

11:                                               ; preds = %1
  %12 = load ptr, ptr %4, align 8
  %13 = getelementptr inbounds nuw %struct.OpExpr, ptr %12, i32 0, i32 7
  %14 = load ptr, ptr %13, align 8
  %15 = call ptr @list_nth_cell(ptr noundef %14, i32 noundef 0)
  %16 = load ptr, ptr %15, align 8
  store ptr %16, ptr %2, align 8
  store i32 1, ptr %5, align 4
  br label %18

17:                                               ; preds = %1
  store ptr null, ptr %2, align 8
  store i32 1, ptr %5, align 4
  br label %18

18:                                               ; preds = %17, %11
  call void @llvm.lifetime.end.p0(i64 8, ptr %4) #6
  %19 = load ptr, ptr %2, align 8
  ret ptr %19
}

; Function Attrs: inlinehint nounwind uwtable
define internal i32 @list_length(ptr noundef %0) #1 {
  %2 = alloca ptr, align 8
  store ptr %0, ptr %2, align 8
  %3 = load ptr, ptr %2, align 8
  %4 = icmp ne ptr %3, null
  br i1 %4, label %5, label %9

5:                                                ; preds = %1
  %6 = load ptr, ptr %2, align 8
  %7 = getelementptr inbounds nuw %struct.List, ptr %6, i32 0, i32 1
  %8 = load i32, ptr %7, align 4
  br label %10

9:                                                ; preds = %1
  br label %10

10:                                               ; preds = %9, %5
  %11 = phi i32 [ %8, %5 ], [ 0, %9 ]
  ret i32 %11
}

; Function Attrs: inlinehint nounwind uwtable
define internal zeroext i1 @is_opclause(ptr noundef %0) #1 {
  %2 = alloca ptr, align 8
  store ptr %0, ptr %2, align 8
  %3 = load ptr, ptr %2, align 8
  %4 = icmp ne ptr %3, null
  br i1 %4, label %5, label %10

5:                                                ; preds = %1
  %6 = load ptr, ptr %2, align 8
  %7 = getelementptr inbounds nuw %struct.Node, ptr %6, i32 0, i32 0
  %8 = load i32, ptr %7, align 4
  %9 = icmp eq i32 %8, 17
  br label %10

10:                                               ; preds = %5, %1
  %11 = phi i1 [ false, %1 ], [ %9, %5 ]
  ret i1 %11
}

; Function Attrs: inlinehint nounwind uwtable
define internal ptr @newNode(i64 noundef %0, i32 noundef %1) #1 {
  %3 = alloca i64, align 8
  %4 = alloca i32, align 4
  %5 = alloca ptr, align 8
  store i64 %0, ptr %3, align 8
  store i32 %1, ptr %4, align 4
  call void @llvm.lifetime.start.p0(i64 8, ptr %5) #6
  %6 = load i64, ptr %3, align 8
  %7 = call ptr @palloc0(i64 noundef %6)
  store ptr %7, ptr %5, align 8
  %8 = load i32, ptr %4, align 4
  %9 = load ptr, ptr %5, align 8
  %10 = getelementptr inbounds nuw %struct.Node, ptr %9, i32 0, i32 0
  store i32 %8, ptr %10, align 4
  %11 = load ptr, ptr %5, align 8
  call void @llvm.lifetime.end.p0(i64 8, ptr %5) #6
  ret ptr %11
}

; Function Attrs: nounwind uwtable
define dso_local ptr @make_plain_restrictinfo(ptr noundef %0, ptr noundef %1, ptr noundef %2, i1 noundef zeroext %3, i1 noundef zeroext %4, i1 noundef zeroext %5, i1 noundef zeroext %6, i32 noundef %7, ptr noundef %8, ptr noundef %9, ptr noundef %10) #0 {
  %12 = alloca ptr, align 8
  %13 = alloca ptr, align 8
  %14 = alloca ptr, align 8
  %15 = alloca i8, align 1
  %16 = alloca i8, align 1
  %17 = alloca i8, align 1
  %18 = alloca i8, align 1
  %19 = alloca i32, align 4
  %20 = alloca ptr, align 8
  %21 = alloca ptr, align 8
  %22 = alloca ptr, align 8
  %23 = alloca ptr, align 8
  %24 = alloca ptr, align 8
  store ptr %0, ptr %12, align 8
  store ptr %1, ptr %13, align 8
  store ptr %2, ptr %14, align 8
  %25 = zext i1 %3 to i8
  store i8 %25, ptr %15, align 1
  %26 = zext i1 %4 to i8
  store i8 %26, ptr %16, align 1
  %27 = zext i1 %5 to i8
  store i8 %27, ptr %17, align 1
  %28 = zext i1 %6 to i8
  store i8 %28, ptr %18, align 1
  store i32 %7, ptr %19, align 4
  store ptr %8, ptr %20, align 8
  store ptr %9, ptr %21, align 8
  store ptr %10, ptr %22, align 8
  call void @llvm.lifetime.start.p0(i64 8, ptr %23) #6
  %29 = call ptr @newNode(i64 noundef 240, i32 noundef 317)
  store ptr %29, ptr %23, align 8
  call void @llvm.lifetime.start.p0(i64 8, ptr %24) #6
  %30 = load ptr, ptr %13, align 8
  %31 = load ptr, ptr %23, align 8
  %32 = getelementptr inbounds nuw %struct.RestrictInfo, ptr %31, i32 0, i32 1
  store ptr %30, ptr %32, align 8
  %33 = load ptr, ptr %14, align 8
  %34 = load ptr, ptr %23, align 8
  %35 = getelementptr inbounds nuw %struct.RestrictInfo, ptr %34, i32 0, i32 17
  store ptr %33, ptr %35, align 8
  %36 = load i8, ptr %15, align 1, !range !4, !noundef !5
  %37 = trunc i8 %36 to i1
  %38 = load ptr, ptr %23, align 8
  %39 = getelementptr inbounds nuw %struct.RestrictInfo, ptr %38, i32 0, i32 2
  %40 = zext i1 %37 to i8
  store i8 %40, ptr %39, align 8
  %41 = load i8, ptr %18, align 1, !range !4, !noundef !5
  %42 = trunc i8 %41 to i1
  %43 = load ptr, ptr %23, align 8
  %44 = getelementptr inbounds nuw %struct.RestrictInfo, ptr %43, i32 0, i32 4
  %45 = zext i1 %42 to i8
  store i8 %45, ptr %44, align 2
  %46 = load i8, ptr %16, align 1, !range !4, !noundef !5
  %47 = trunc i8 %46 to i1
  %48 = load ptr, ptr %23, align 8
  %49 = getelementptr inbounds nuw %struct.RestrictInfo, ptr %48, i32 0, i32 5
  %50 = zext i1 %47 to i8
  store i8 %50, ptr %49, align 1
  %51 = load i8, ptr %17, align 1, !range !4, !noundef !5
  %52 = trunc i8 %51 to i1
  %53 = load ptr, ptr %23, align 8
  %54 = getelementptr inbounds nuw %struct.RestrictInfo, ptr %53, i32 0, i32 6
  %55 = zext i1 %52 to i8
  store i8 %55, ptr %54, align 4
  %56 = load ptr, ptr %23, align 8
  %57 = getelementptr inbounds nuw %struct.RestrictInfo, ptr %56, i32 0, i32 3
  store i8 0, ptr %57, align 1
  %58 = load i32, ptr %19, align 4
  %59 = load ptr, ptr %23, align 8
  %60 = getelementptr inbounds nuw %struct.RestrictInfo, ptr %59, i32 0, i32 9
  store i32 %58, ptr %60, align 4
  %61 = load ptr, ptr %21, align 8
  %62 = load ptr, ptr %23, align 8
  %63 = getelementptr inbounds nuw %struct.RestrictInfo, ptr %62, i32 0, i32 13
  store ptr %61, ptr %63, align 8
  %64 = load ptr, ptr %22, align 8
  %65 = load ptr, ptr %23, align 8
  %66 = getelementptr inbounds nuw %struct.RestrictInfo, ptr %65, i32 0, i32 14
  store ptr %64, ptr %66, align 8
  %67 = load i32, ptr %19, align 4
  %68 = icmp ugt i32 %67, 0
  br i1 %68, label %69, label %76

69:                                               ; preds = %11
  %70 = load ptr, ptr %13, align 8
  %71 = call zeroext i1 @contain_leaked_vars(ptr noundef %70)
  %72 = xor i1 %71, true
  %73 = load ptr, ptr %23, align 8
  %74 = getelementptr inbounds nuw %struct.RestrictInfo, ptr %73, i32 0, i32 7
  %75 = zext i1 %72 to i8
  store i8 %75, ptr %74, align 1
  br label %79

76:                                               ; preds = %11
  %77 = load ptr, ptr %23, align 8
  %78 = getelementptr inbounds nuw %struct.RestrictInfo, ptr %77, i32 0, i32 7
  store i8 0, ptr %78, align 1
  br label %79

79:                                               ; preds = %76, %69
  %80 = load ptr, ptr %23, align 8
  %81 = getelementptr inbounds nuw %struct.RestrictInfo, ptr %80, i32 0, i32 8
  store i32 0, ptr %81, align 8
  %82 = load ptr, ptr %13, align 8
  %83 = call zeroext i1 @is_opclause(ptr noundef %82)
  br i1 %83, label %84, label %133

84:                                               ; preds = %79
  %85 = load ptr, ptr %13, align 8
  %86 = getelementptr inbounds nuw %struct.OpExpr, ptr %85, i32 0, i32 7
  %87 = load ptr, ptr %86, align 8
  %88 = call i32 @list_length(ptr noundef %87)
  %89 = icmp eq i32 %88, 2
  br i1 %89, label %90, label %133

90:                                               ; preds = %84
  %91 = load ptr, ptr %12, align 8
  %92 = load ptr, ptr %13, align 8
  %93 = call ptr @get_leftop(ptr noundef %92)
  %94 = call ptr @pull_varnos(ptr noundef %91, ptr noundef %93)
  %95 = load ptr, ptr %23, align 8
  %96 = getelementptr inbounds nuw %struct.RestrictInfo, ptr %95, i32 0, i32 15
  store ptr %94, ptr %96, align 8
  %97 = load ptr, ptr %12, align 8
  %98 = load ptr, ptr %13, align 8
  %99 = call ptr @get_rightop(ptr noundef %98)
  %100 = call ptr @pull_varnos(ptr noundef %97, ptr noundef %99)
  %101 = load ptr, ptr %23, align 8
  %102 = getelementptr inbounds nuw %struct.RestrictInfo, ptr %101, i32 0, i32 16
  store ptr %100, ptr %102, align 8
  %103 = load ptr, ptr %23, align 8
  %104 = getelementptr inbounds nuw %struct.RestrictInfo, ptr %103, i32 0, i32 15
  %105 = load ptr, ptr %104, align 8
  %106 = load ptr, ptr %23, align 8
  %107 = getelementptr inbounds nuw %struct.RestrictInfo, ptr %106, i32 0, i32 16
  %108 = load ptr, ptr %107, align 8
  %109 = call ptr @bms_union(ptr noundef %105, ptr noundef %108)
  %110 = load ptr, ptr %23, align 8
  %111 = getelementptr inbounds nuw %struct.RestrictInfo, ptr %110, i32 0, i32 11
  store ptr %109, ptr %111, align 8
  %112 = load ptr, ptr %23, align 8
  %113 = getelementptr inbounds nuw %struct.RestrictInfo, ptr %112, i32 0, i32 15
  %114 = load ptr, ptr %113, align 8
  %115 = icmp eq ptr %114, null
  br i1 %115, label %132, label %116

116:                                              ; preds = %90
  %117 = load ptr, ptr %23, align 8
  %118 = getelementptr inbounds nuw %struct.RestrictInfo, ptr %117, i32 0, i32 16
  %119 = load ptr, ptr %118, align 8
  %120 = icmp eq ptr %119, null
  br i1 %120, label %132, label %121

121:                                              ; preds = %116
  %122 = load ptr, ptr %23, align 8
  %123 = getelementptr inbounds nuw %struct.RestrictInfo, ptr %122, i32 0, i32 15
  %124 = load ptr, ptr %123, align 8
  %125 = load ptr, ptr %23, align 8
  %126 = getelementptr inbounds nuw %struct.RestrictInfo, ptr %125, i32 0, i32 16
  %127 = load ptr, ptr %126, align 8
  %128 = call zeroext i1 @bms_overlap(ptr noundef %124, ptr noundef %127)
  br i1 %128, label %132, label %129

129:                                              ; preds = %121
  %130 = load ptr, ptr %23, align 8
  %131 = getelementptr inbounds nuw %struct.RestrictInfo, ptr %130, i32 0, i32 3
  store i8 1, ptr %131, align 1
  br label %132

132:                                              ; preds = %129, %121, %116, %90
  br label %143

133:                                              ; preds = %84, %79
  %134 = load ptr, ptr %23, align 8
  %135 = getelementptr inbounds nuw %struct.RestrictInfo, ptr %134, i32 0, i32 15
  store ptr null, ptr %135, align 8
  %136 = load ptr, ptr %23, align 8
  %137 = getelementptr inbounds nuw %struct.RestrictInfo, ptr %136, i32 0, i32 16
  store ptr null, ptr %137, align 8
  %138 = load ptr, ptr %12, align 8
  %139 = load ptr, ptr %13, align 8
  %140 = call ptr @pull_varnos(ptr noundef %138, ptr noundef %139)
  %141 = load ptr, ptr %23, align 8
  %142 = getelementptr inbounds nuw %struct.RestrictInfo, ptr %141, i32 0, i32 11
  store ptr %140, ptr %142, align 8
  br label %143

143:                                              ; preds = %133, %132
  %144 = load ptr, ptr %20, align 8
  %145 = icmp ne ptr %144, null
  br i1 %145, label %146, label %150

146:                                              ; preds = %143
  %147 = load ptr, ptr %20, align 8
  %148 = load ptr, ptr %23, align 8
  %149 = getelementptr inbounds nuw %struct.RestrictInfo, ptr %148, i32 0, i32 12
  store ptr %147, ptr %149, align 8
  br label %156

150:                                              ; preds = %143
  %151 = load ptr, ptr %23, align 8
  %152 = getelementptr inbounds nuw %struct.RestrictInfo, ptr %151, i32 0, i32 11
  %153 = load ptr, ptr %152, align 8
  %154 = load ptr, ptr %23, align 8
  %155 = getelementptr inbounds nuw %struct.RestrictInfo, ptr %154, i32 0, i32 12
  store ptr %153, ptr %155, align 8
  br label %156

156:                                              ; preds = %150, %146
  %157 = load ptr, ptr %23, align 8
  %158 = getelementptr inbounds nuw %struct.RestrictInfo, ptr %157, i32 0, i32 11
  %159 = load ptr, ptr %158, align 8
  %160 = load ptr, ptr %12, align 8
  %161 = getelementptr inbounds nuw %struct.PlannerInfo, ptr %160, i32 0, i32 12
  %162 = load ptr, ptr %161, align 8
  %163 = call ptr @bms_difference(ptr noundef %159, ptr noundef %162)
  store ptr %163, ptr %24, align 8
  %164 = load ptr, ptr %24, align 8
  %165 = call i32 @bms_num_members(ptr noundef %164)
  %166 = load ptr, ptr %23, align 8
  %167 = getelementptr inbounds nuw %struct.RestrictInfo, ptr %166, i32 0, i32 10
  store i32 %165, ptr %167, align 8
  %168 = load ptr, ptr %24, align 8
  call void @bms_free(ptr noundef %168)
  %169 = load ptr, ptr %12, align 8
  %170 = getelementptr inbounds nuw %struct.PlannerInfo, ptr %169, i32 0, i32 29
  %171 = load i32, ptr %170, align 8
  %172 = add i32 %171, 1
  store i32 %172, ptr %170, align 8
  %173 = load ptr, ptr %23, align 8
  %174 = getelementptr inbounds nuw %struct.RestrictInfo, ptr %173, i32 0, i32 18
  store i32 %172, ptr %174, align 8
  %175 = load ptr, ptr %23, align 8
  %176 = getelementptr inbounds nuw %struct.RestrictInfo, ptr %175, i32 0, i32 19
  store ptr null, ptr %176, align 8
  %177 = load ptr, ptr %23, align 8
  %178 = getelementptr inbounds nuw %struct.RestrictInfo, ptr %177, i32 0, i32 20
  %179 = getelementptr inbounds nuw %struct.QualCost, ptr %178, i32 0, i32 0
  store double -1.000000e+00, ptr %179, align 8
  %180 = load ptr, ptr %23, align 8
  %181 = getelementptr inbounds nuw %struct.RestrictInfo, ptr %180, i32 0, i32 21
  store double -1.000000e+00, ptr %181, align 8
  %182 = load ptr, ptr %23, align 8
  %183 = getelementptr inbounds nuw %struct.RestrictInfo, ptr %182, i32 0, i32 22
  store double -1.000000e+00, ptr %183, align 8
  %184 = load ptr, ptr %23, align 8
  %185 = getelementptr inbounds nuw %struct.RestrictInfo, ptr %184, i32 0, i32 23
  store ptr null, ptr %185, align 8
  %186 = load ptr, ptr %23, align 8
  %187 = getelementptr inbounds nuw %struct.RestrictInfo, ptr %186, i32 0, i32 24
  store ptr null, ptr %187, align 8
  %188 = load ptr, ptr %23, align 8
  %189 = getelementptr inbounds nuw %struct.RestrictInfo, ptr %188, i32 0, i32 25
  store ptr null, ptr %189, align 8
  %190 = load ptr, ptr %23, align 8
  %191 = getelementptr inbounds nuw %struct.RestrictInfo, ptr %190, i32 0, i32 26
  store ptr null, ptr %191, align 8
  %192 = load ptr, ptr %23, align 8
  %193 = getelementptr inbounds nuw %struct.RestrictInfo, ptr %192, i32 0, i32 27
  store ptr null, ptr %193, align 8
  %194 = load ptr, ptr %23, align 8
  %195 = getelementptr inbounds nuw %struct.RestrictInfo, ptr %194, i32 0, i32 28
  store ptr null, ptr %195, align 8
  %196 = load ptr, ptr %23, align 8
  %197 = getelementptr inbounds nuw %struct.RestrictInfo, ptr %196, i32 0, i32 29
  store i8 0, ptr %197, align 8
  %198 = load ptr, ptr %23, align 8
  %199 = getelementptr inbounds nuw %struct.RestrictInfo, ptr %198, i32 0, i32 30
  store i32 0, ptr %199, align 4
  %200 = load ptr, ptr %23, align 8
  %201 = getelementptr inbounds nuw %struct.RestrictInfo, ptr %200, i32 0, i32 31
  store double -1.000000e+00, ptr %201, align 8
  %202 = load ptr, ptr %23, align 8
  %203 = getelementptr inbounds nuw %struct.RestrictInfo, ptr %202, i32 0, i32 32
  store double -1.000000e+00, ptr %203, align 8
  %204 = load ptr, ptr %23, align 8
  %205 = getelementptr inbounds nuw %struct.RestrictInfo, ptr %204, i32 0, i32 33
  store double -1.000000e+00, ptr %205, align 8
  %206 = load ptr, ptr %23, align 8
  %207 = getelementptr inbounds nuw %struct.RestrictInfo, ptr %206, i32 0, i32 34
  store double -1.000000e+00, ptr %207, align 8
  %208 = load ptr, ptr %23, align 8
  %209 = getelementptr inbounds nuw %struct.RestrictInfo, ptr %208, i32 0, i32 35
  store i32 0, ptr %209, align 8
  %210 = load ptr, ptr %23, align 8
  %211 = getelementptr inbounds nuw %struct.RestrictInfo, ptr %210, i32 0, i32 36
  store i32 0, ptr %211, align 4
  %212 = load ptr, ptr %23, align 8
  call void @llvm.lifetime.end.p0(i64 8, ptr %24) #6
  call void @llvm.lifetime.end.p0(i64 8, ptr %23) #6
  ret ptr %212
}