; Function Attrs: nounwind uwtable
define dso_local noundef ptr @make_plain_restrictinfo(ptr noundef %0, ptr noundef %1, ptr noundef %2, i1 noundef zeroext %3, i1 noundef zeroext %4, i1 noundef zeroext %5, i1 noundef zeroext %6, i32 noundef %7, ptr noundef %8, ptr noundef %9, ptr noundef %10) local_unnamed_addr #0 {
  %12 = zext i1 %3 to i8
  %13 = zext i1 %4 to i8
  %14 = zext i1 %5 to i8
  %15 = zext i1 %6 to i8
  %16 = tail call noundef ptr @palloc0(i64 noundef 240) #5
  store i32 317, ptr %16, align 4
  %17 = getelementptr inbounds nuw i8, ptr %16, i64 8
  store ptr %1, ptr %17, align 8
  %18 = getelementptr inbounds nuw i8, ptr %16, i64 88
  store ptr %2, ptr %18, align 8
  %19 = getelementptr inbounds nuw i8, ptr %16, i64 16
  store i8 %12, ptr %19, align 8
  %20 = getelementptr inbounds nuw i8, ptr %16, i64 18
  store i8 %15, ptr %20, align 2
  %21 = getelementptr inbounds nuw i8, ptr %16, i64 19
  store i8 %13, ptr %21, align 1
  %22 = getelementptr inbounds nuw i8, ptr %16, i64 20
  store i8 %14, ptr %22, align 4
  %23 = getelementptr inbounds nuw i8, ptr %16, i64 17
  store i8 0, ptr %23, align 1
  %24 = getelementptr inbounds nuw i8, ptr %16, i64 28
  store i32 %7, ptr %24, align 4
  %25 = getelementptr inbounds nuw i8, ptr %16, i64 56
  store ptr %9, ptr %25, align 8
  %26 = getelementptr inbounds nuw i8, ptr %16, i64 64
  store ptr %10, ptr %26, align 8
  %.not = icmp eq i32 %7, 0
  br i1 %.not, label %31, label %27

27:                                               ; preds = %11
  %28 = tail call zeroext i1 @contain_leaked_vars(ptr noundef %1) #5
  %29 = xor i1 %28, true
  %30 = zext i1 %29 to i8
  br label %31

31:                                               ; preds = %11, %27
  %.sink = phi i8 [ %30, %27 ], [ 0, %11 ]
  %32 = getelementptr inbounds nuw i8, ptr %16, i64 21
  store i8 %.sink, ptr %32, align 1
  %33 = getelementptr inbounds nuw i8, ptr %16, i64 24
  store i32 0, ptr %33, align 8
  %.not.i = icmp eq ptr %1, null
  br i1 %.not.i, label %is_opclause.exit.thread, label %is_opclause.exit

is_opclause.exit:                                 ; preds = %31
  %34 = load i32, ptr %1, align 4
  %35 = icmp eq i32 %34, 17
  br i1 %35, label %36, label %is_opclause.exit.thread

36:                                               ; preds = %is_opclause.exit
  %37 = getelementptr inbounds nuw i8, ptr %1, i64 32
  %38 = load ptr, ptr %37, align 8
  %.not.i79 = icmp eq ptr %38, null
  br i1 %.not.i79, label %is_opclause.exit.thread, label %list_length.exit

list_length.exit:                                 ; preds = %36
  %39 = getelementptr inbounds nuw i8, ptr %38, i64 4
  %40 = load i32, ptr %39, align 4
  %41 = icmp eq i32 %40, 2
  br i1 %41, label %get_leftop.exit, label %is_opclause.exit.thread

get_leftop.exit:                                  ; preds = %list_length.exit
  %42 = getelementptr i8, ptr %38, i64 16
  %.val.i = load ptr, ptr %42, align 8
  %43 = load ptr, ptr %.val.i, align 8
  %44 = tail call ptr @pull_varnos(ptr noundef %0, ptr noundef %43) #5
  %45 = getelementptr inbounds nuw i8, ptr %16, i64 72
  store ptr %44, ptr %45, align 8
  %.val78 = load ptr, ptr %37, align 8
  %.not.i.i = icmp eq ptr %.val78, null
  br i1 %.not.i.i, label %get_rightop.exit, label %list_length.exit.i

list_length.exit.i:                               ; preds = %get_leftop.exit
  %46 = getelementptr inbounds nuw i8, ptr %.val78, i64 4
  %47 = load i32, ptr %46, align 4
  %48 = icmp sgt i32 %47, 1
  br i1 %48, label %49, label %get_rightop.exit

49:                                               ; preds = %list_length.exit.i
  %50 = getelementptr i8, ptr %.val78, i64 16
  %.val.i82 = load ptr, ptr %50, align 8
  %51 = getelementptr inbounds nuw i8, ptr %.val.i82, i64 8
  %52 = load ptr, ptr %51, align 8
  br label %get_rightop.exit

get_rightop.exit:                                 ; preds = %get_leftop.exit, %list_length.exit.i, %49
  %.0.i81 = phi ptr [ %52, %49 ], [ null, %list_length.exit.i ], [ null, %get_leftop.exit ]
  %53 = tail call ptr @pull_varnos(ptr noundef %0, ptr noundef %.0.i81) #5
  %54 = getelementptr inbounds nuw i8, ptr %16, i64 80
  store ptr %53, ptr %54, align 8
  %55 = load ptr, ptr %45, align 8
  %56 = tail call ptr @bms_union(ptr noundef %55, ptr noundef %53) #5
  %57 = getelementptr inbounds nuw i8, ptr %16, i64 40
  store ptr %56, ptr %57, align 8
  %58 = load ptr, ptr %45, align 8
  %59 = icmp eq ptr %58, null
  br i1 %59, label %69, label %60

60:                                               ; preds = %get_rightop.exit
  %61 = load ptr, ptr %54, align 8
  %62 = icmp eq ptr %61, null
  br i1 %62, label %69, label %63

63:                                               ; preds = %60
  %64 = tail call zeroext i1 @bms_overlap(ptr noundef nonnull %58, ptr noundef nonnull %61) #5
  br i1 %64, label %69, label %65

65:                                               ; preds = %63
  store i8 1, ptr %23, align 1
  br label %69

is_opclause.exit.thread:                          ; preds = %36, %31, %list_length.exit, %is_opclause.exit
  %66 = getelementptr inbounds nuw i8, ptr %16, i64 72
  tail call void @llvm.memset.p0.i64(ptr noundef nonnull align 8 dereferenceable(16) %66, i8 0, i64 16, i1 false)
  %67 = tail call ptr @pull_varnos(ptr noundef %0, ptr noundef %1) #5
  %68 = getelementptr inbounds nuw i8, ptr %16, i64 40
  store ptr %67, ptr %68, align 8
  br label %69

69:                                               ; preds = %get_rightop.exit, %60, %63, %65, %is_opclause.exit.thread
  %.not77 = icmp eq ptr %8, null
  %70 = getelementptr inbounds nuw i8, ptr %16, i64 40
  %71 = load ptr, ptr %70, align 8
  %. = select i1 %.not77, ptr %71, ptr %8
  %72 = getelementptr inbounds nuw i8, ptr %16, i64 48
  store ptr %., ptr %72, align 8
  %73 = getelementptr inbounds nuw i8, ptr %0, i64 96
  %74 = load ptr, ptr %73, align 8
  %75 = tail call ptr @bms_difference(ptr noundef %71, ptr noundef %74) #5
  %76 = tail call i32 @bms_num_members(ptr noundef %75) #5
  %77 = getelementptr inbounds nuw i8, ptr %16, i64 32
  store i32 %76, ptr %77, align 8
  tail call void @bms_free(ptr noundef %75) #5
  %78 = getelementptr inbounds nuw i8, ptr %0, i64 232
  %79 = load i32, ptr %78, align 8
  %80 = add i32 %79, 1
  store i32 %80, ptr %78, align 8
  %81 = getelementptr inbounds nuw i8, ptr %16, i64 96
  store i32 %80, ptr %81, align 8
  %82 = getelementptr inbounds nuw i8, ptr %16, i64 104
  store ptr null, ptr %82, align 8
  %83 = getelementptr inbounds nuw i8, ptr %16, i64 112
  store double -1.000000e+00, ptr %83, align 8
  %84 = getelementptr inbounds nuw i8, ptr %16, i64 128
  store double -1.000000e+00, ptr %84, align 8
  %85 = getelementptr inbounds nuw i8, ptr %16, i64 136
  store double -1.000000e+00, ptr %85, align 8
  %86 = getelementptr inbounds nuw i8, ptr %16, i64 144
  %87 = getelementptr inbounds nuw i8, ptr %16, i64 196
  store i32 0, ptr %87, align 4
  %88 = getelementptr inbounds nuw i8, ptr %16, i64 200
  tail call void @llvm.memset.p0.i64(ptr noundef nonnull align 8 dereferenceable(49) %86, i8 0, i64 49, i1 false)
  store double -1.000000e+00, ptr %88, align 8
  %89 = getelementptr inbounds nuw i8, ptr %16, i64 208
  store double -1.000000e+00, ptr %89, align 8
  %90 = getelementptr inbounds nuw i8, ptr %16, i64 216
  store double -1.000000e+00, ptr %90, align 8
  %91 = getelementptr inbounds nuw i8, ptr %16, i64 224
  store double -1.000000e+00, ptr %91, align 8
  %92 = getelementptr inbounds nuw i8, ptr %16, i64 232
  store i32 0, ptr %92, align 8
  %93 = getelementptr inbounds nuw i8, ptr %16, i64 236
  store i32 0, ptr %93, align 4
  ret ptr %16
}